; Function Attrs: mustprogress nofree norecurse nosync nounwind willreturn memory(read, inaccessiblemem: none) uwtable
define internal range(i32 -1, 2) i32 @Vec_WecSortCompare6(ptr noundef readonly captures(none) %0, ptr noundef readonly captures(none) %1) #22 {
  %3 = getelementptr i8, ptr %0, i64 4
  %.val9 = load i32, ptr %3, align 4, !tbaa !28
  %4 = getelementptr i8, ptr %0, i64 8
  %.val10 = load ptr, ptr %4, align 8, !tbaa !30
  %5 = sext i32 %.val9 to i64
  %6 = getelementptr i32, ptr %.val10, i64 %5
  %7 = getelementptr i8, ptr %6, i64 -4
  %8 = load i32, ptr %7, align 4, !tbaa !31
  %9 = getelementptr i8, ptr %1, i64 4
  %.val7 = load i32, ptr %9, align 4, !tbaa !28
  %10 = getelementptr i8, ptr %1, i64 8
  %.val8 = load ptr, ptr %10, align 8, !tbaa !30
  %11 = sext i32 %.val7 to i64
  %12 = getelementptr i32, ptr %.val8, i64 %11
  %13 = getelementptr i8, ptr %12, i64 -4
  %14 = load i32, ptr %13, align 4, !tbaa !31
  %.0 = tail call i32 @llvm.scmp.i32.i32(i32 %14, i32 %8)
  ret i32 %.0
}